MPLINK 5.08, LINKER
Linker Map File - Created Wed Jun 22 18:50:09 2016

                                 Section Info
                  Section       Type    Address   Location Size(Bytes)
                ---------  ---------  ---------  ---------  ---------
                   .org_0       code   0x000000    program   0x000002
                   .cinit    romdata   0x000001    program   0x000004
                   .org_1       code   0x000004    program   0x000448
                   .org_2       code   0x000300    program   0x0001e4
                   .org_3       code   0x000400    program   0x0001c0
                   .org_4       code   0x000500    program   0x0001e0
                   .org_5       code   0x000600    program   0x0001e0
                   .org_6       code   0x000700    program   0x000080
.config_2007_BUILD/DEFAULT/PRODUCTION/PROYECT       code   0x002007    program   0x000002
.config_2008_BUILD/DEFAULT/PRODUCTION/PROYECT       code   0x002008    program   0x000002



                              Program Memory Usage 
                               Start         End      
                           ---------   ---------      
                            0x000000    0x000002      
                            0x000004    0x000227      
                            0x000300    0x0003f1      
                            0x000400    0x0004df      
                            0x000500    0x0005ef      
                            0x000600    0x0006ef      
                            0x000700    0x00073f      
                            0x002007    0x002008      
            1563 out of 8455 program addresses used, program memory utilization is 18%



                              Symbols - Sorted by Name
                     Name    Address   Location    Storage File                     
                ---------  ---------  ---------  --------- ---------                
                        A   0x0005cc    program     static C:\Users\ivan__000\Desktop\DIGITAL 2\proyectoFinal-v5.3.X\cargaDeDatos.inc
                   AASCII   0x00008a    program     static C:\Users\ivan__000\Desktop\DIGITAL 2\proyectoFinal-v5.3.X\proyectoFinal-v5.3.asm
             ACTIVARDESPL   0x00021b    program     static C:\Users\ivan__000\Desktop\DIGITAL 2\proyectoFinal-v5.3.X\proyectoFinal-v5.3.asm
               ADCLECTURA   0x0000d4    program     static C:\Users\ivan__000\Desktop\DIGITAL 2\proyectoFinal-v5.3.X\proyectoFinal-v5.3.asm
                   ALARMA   0x0000b1    program     static C:\Users\ivan__000\Desktop\DIGITAL 2\proyectoFinal-v5.3.X\proyectoFinal-v5.3.asm
                AMPERSAND   0x00047c    program     static C:\Users\ivan__000\Desktop\DIGITAL 2\proyectoFinal-v5.3.X\cargaDeDatos.inc
                   ARROBA   0x0005c0    program     static C:\Users\ivan__000\Desktop\DIGITAL 2\proyectoFinal-v5.3.X\cargaDeDatos.inc
              ASIGNARHORA   0x0001e1    program     static C:\Users\ivan__000\Desktop\DIGITAL 2\proyectoFinal-v5.3.X\proyectoFinal-v5.3.asm
                ASIGNART4   0x000349    program     static C:\Users\ivan__000\Desktop\DIGITAL 2\proyectoFinal-v5.3.X\usoTeclado.inc
                ASIGNART5   0x000359    program     static C:\Users\ivan__000\Desktop\DIGITAL 2\proyectoFinal-v5.3.X\usoTeclado.inc
                      AST   0x0004a4    program     static C:\Users\ivan__000\Desktop\DIGITAL 2\proyectoFinal-v5.3.X\cargaDeDatos.inc
                    BARRA   0x0004d6    program     static C:\Users\ivan__000\Desktop\DIGITAL 2\proyectoFinal-v5.3.X\cargaDeDatos.inc
                       BE   0x0005d8    program     static C:\Users\ivan__000\Desktop\DIGITAL 2\proyectoFinal-v5.3.X\cargaDeDatos.inc
                     BIT0   0x000300    program     static C:\Users\ivan__000\Desktop\DIGITAL 2\proyectoFinal-v5.3.X\usoTeclado.inc
                     BIT1   0x00030a    program     static C:\Users\ivan__000\Desktop\DIGITAL 2\proyectoFinal-v5.3.X\usoTeclado.inc
                     BIT2   0x000314    program     static C:\Users\ivan__000\Desktop\DIGITAL 2\proyectoFinal-v5.3.X\usoTeclado.inc
                     BIT3   0x00031e    program     static C:\Users\ivan__000\Desktop\DIGITAL 2\proyectoFinal-v5.3.X\usoTeclado.inc
             BORRARPUNTOS   0x000145    program     static C:\Users\ivan__000\Desktop\DIGITAL 2\proyectoFinal-v5.3.X\proyectoFinal-v5.3.asm
               BUSCARFILA   0x000400    program     static C:\Users\ivan__000\Desktop\DIGITAL 2\proyectoFinal-v5.3.X\cargaDeDatos.inc
            CAMBIOBANDERA   0x000096    program     static C:\Users\ivan__000\Desktop\DIGITAL 2\proyectoFinal-v5.3.X\proyectoFinal-v5.3.asm
               CAMBIOFILA   0x0003ec    program     static C:\Users\ivan__000\Desktop\DIGITAL 2\proyectoFinal-v5.3.X\cargaDeDatos.inc
                CARGARBIT   0x0003dc    program     static C:\Users\ivan__000\Desktop\DIGITAL 2\proyectoFinal-v5.3.X\cargaDeDatos.inc
           CARGARCARACTER   0x0003da    program     static C:\Users\ivan__000\Desktop\DIGITAL 2\proyectoFinal-v5.3.X\cargaDeDatos.inc
           CARGARCOLVACIA   0x000223    program     static C:\Users\ivan__000\Desktop\DIGITAL 2\proyectoFinal-v5.3.X\proyectoFinal-v5.3.asm
              CARGARDATOS   0x0003cd    program     static C:\Users\ivan__000\Desktop\DIGITAL 2\proyectoFinal-v5.3.X\cargaDeDatos.inc
                       CE   0x0005e4    program     static C:\Users\ivan__000\Desktop\DIGITAL 2\proyectoFinal-v5.3.X\cargaDeDatos.inc
              CENTENASADC   0x000160    program     static C:\Users\ivan__000\Desktop\DIGITAL 2\proyectoFinal-v5.3.X\proyectoFinal-v5.3.asm
                     CERO   0x000500    program     static C:\Users\ivan__000\Desktop\DIGITAL 2\proyectoFinal-v5.3.X\cargaDeDatos.inc
                    CINCO   0x00053c    program     static C:\Users\ivan__000\Desktop\DIGITAL 2\proyectoFinal-v5.3.X\cargaDeDatos.inc
                     COMA   0x0004b8    program     static C:\Users\ivan__000\Desktop\DIGITAL 2\proyectoFinal-v5.3.X\cargaDeDatos.inc
                 COMIENZO   0x000005    program     static C:\Users\ivan__000\Desktop\DIGITAL 2\proyectoFinal-v5.3.X\proyectoFinal-v5.3.asm
                 COMILLAD   0x000454    program     static C:\Users\ivan__000\Desktop\DIGITAL 2\proyectoFinal-v5.3.X\cargaDeDatos.inc
                 COMILLAS   0x000486    program     static C:\Users\ivan__000\Desktop\DIGITAL 2\proyectoFinal-v5.3.X\cargaDeDatos.inc
                 CONTROL1   0x000064    program     static C:\Users\ivan__000\Desktop\DIGITAL 2\proyectoFinal-v5.3.X\proyectoFinal-v5.3.asm
                 CONTROL2   0x000067    program     static C:\Users\ivan__000\Desktop\DIGITAL 2\proyectoFinal-v5.3.X\proyectoFinal-v5.3.asm
           CONTROLDESPLAZ   0x0000a7    program     static C:\Users\ivan__000\Desktop\DIGITAL 2\proyectoFinal-v5.3.X\proyectoFinal-v5.3.asm
             CONTROLFINAL   0x000174    program     static C:\Users\ivan__000\Desktop\DIGITAL 2\proyectoFinal-v5.3.X\proyectoFinal-v5.3.asm
               CONVERTBCD   0x000160    program     static C:\Users\ivan__000\Desktop\DIGITAL 2\proyectoFinal-v5.3.X\proyectoFinal-v5.3.asm
                   CUATRO   0x000530    program     static C:\Users\ivan__000\Desktop\DIGITAL 2\proyectoFinal-v5.3.X\cargaDeDatos.inc
               DECENASADC   0x000167    program     static C:\Users\ivan__000\Desktop\DIGITAL 2\proyectoFinal-v5.3.X\proyectoFinal-v5.3.asm
                      DEE   0x000600    program     static C:\Users\ivan__000\Desktop\DIGITAL 2\proyectoFinal-v5.3.X\cargaDeDatos.inc
              DESACTDESPL   0x000221    program     static C:\Users\ivan__000\Desktop\DIGITAL 2\proyectoFinal-v5.3.X\proyectoFinal-v5.3.asm
                      DOS   0x000518    program     static C:\Users\ivan__000\Desktop\DIGITAL 2\proyectoFinal-v5.3.X\cargaDeDatos.inc
                    DOSPT   0x000578    program     static C:\Users\ivan__000\Desktop\DIGITAL 2\proyectoFinal-v5.3.X\cargaDeDatos.inc
                        E   0x00060c    program     static C:\Users\ivan__000\Desktop\DIGITAL 2\proyectoFinal-v5.3.X\cargaDeDatos.inc
                      EFE   0x000618    program     static C:\Users\ivan__000\Desktop\DIGITAL 2\proyectoFinal-v5.3.X\cargaDeDatos.inc
                ENVIARBIT   0x0003df    program     static C:\Users\ivan__000\Desktop\DIGITAL 2\proyectoFinal-v5.3.X\cargaDeDatos.inc
                      ERE   0x0006a8    program     static C:\Users\ivan__000\Desktop\DIGITAL 2\proyectoFinal-v5.3.X\cargaDeDatos.inc
                      ESE   0x0006b4    program     static C:\Users\ivan__000\Desktop\DIGITAL 2\proyectoFinal-v5.3.X\cargaDeDatos.inc
                  ESPACIO   0x000440    program     static C:\Users\ivan__000\Desktop\DIGITAL 2\proyectoFinal-v5.3.X\cargaDeDatos.inc
                     EXCL   0x00044a    program     static C:\Users\ivan__000\Desktop\DIGITAL 2\proyectoFinal-v5.3.X\cargaDeDatos.inc
                    FILA0   0x000730    program     static C:\Users\ivan__000\Desktop\DIGITAL 2\proyectoFinal-v5.3.X\cargaDeDatos.inc
                    FILA1   0x000732    program     static C:\Users\ivan__000\Desktop\DIGITAL 2\proyectoFinal-v5.3.X\cargaDeDatos.inc
                    FILA2   0x000734    program     static C:\Users\ivan__000\Desktop\DIGITAL 2\proyectoFinal-v5.3.X\cargaDeDatos.inc
                    FILA3   0x000736    program     static C:\Users\ivan__000\Desktop\DIGITAL 2\proyectoFinal-v5.3.X\cargaDeDatos.inc
                    FILA4   0x000738    program     static C:\Users\ivan__000\Desktop\DIGITAL 2\proyectoFinal-v5.3.X\cargaDeDatos.inc
                    FILA5   0x00073a    program     static C:\Users\ivan__000\Desktop\DIGITAL 2\proyectoFinal-v5.3.X\cargaDeDatos.inc
                    FILA6   0x00073c    program     static C:\Users\ivan__000\Desktop\DIGITAL 2\proyectoFinal-v5.3.X\cargaDeDatos.inc
                    FILA7   0x00073e    program     static C:\Users\ivan__000\Desktop\DIGITAL 2\proyectoFinal-v5.3.X\cargaDeDatos.inc
            FINADCLECTURA   0x0000e3    program     static C:\Users\ivan__000\Desktop\DIGITAL 2\proyectoFinal-v5.3.X\proyectoFinal-v5.3.asm
               FINCONVERT   0x000192    program     static C:\Users\ivan__000\Desktop\DIGITAL 2\proyectoFinal-v5.3.X\proyectoFinal-v5.3.asm
              FINCTRLDESP   0x0000ae    program     static C:\Users\ivan__000\Desktop\DIGITAL 2\proyectoFinal-v5.3.X\proyectoFinal-v5.3.asm
                FINCUENTA   0x0000d1    program     static C:\Users\ivan__000\Desktop\DIGITAL 2\proyectoFinal-v5.3.X\proyectoFinal-v5.3.asm
                 FINENVIO   0x0003e2    program     static C:\Users\ivan__000\Desktop\DIGITAL 2\proyectoFinal-v5.3.X\cargaDeDatos.inc
              FININCHORAL   0x000137    program     static C:\Users\ivan__000\Desktop\DIGITAL 2\proyectoFinal-v5.3.X\proyectoFinal-v5.3.asm
             FINRECEPCION   0x0000f2    program     static C:\Users\ivan__000\Desktop\DIGITAL 2\proyectoFinal-v5.3.X\proyectoFinal-v5.3.asm
               FINTECLADO   0x000328    program     static C:\Users\ivan__000\Desktop\DIGITAL 2\proyectoFinal-v5.3.X\usoTeclado.inc
                        G   0x000624    program     static C:\Users\ivan__000\Desktop\DIGITAL 2\proyectoFinal-v5.3.X\cargaDeDatos.inc
            GUARDARALARMA   0x00020a    program     static C:\Users\ivan__000\Desktop\DIGITAL 2\proyectoFinal-v5.3.X\proyectoFinal-v5.3.asm
              GUARDARHORA   0x0001f3    program     static C:\Users\ivan__000\Desktop\DIGITAL 2\proyectoFinal-v5.3.X\proyectoFinal-v5.3.asm
             GUARDARTEXTO   0x000203    program     static C:\Users\ivan__000\Desktop\DIGITAL 2\proyectoFinal-v5.3.X\proyectoFinal-v5.3.asm
            GUARDCONTEXTO   0x000198    program     static C:\Users\ivan__000\Desktop\DIGITAL 2\proyectoFinal-v5.3.X\proyectoFinal-v5.3.asm
                        H   0x000630    program     static C:\Users\ivan__000\Desktop\DIGITAL 2\proyectoFinal-v5.3.X\cargaDeDatos.inc
            HABILITARFILA   0x000724    program     static C:\Users\ivan__000\Desktop\DIGITAL 2\proyectoFinal-v5.3.X\cargaDeDatos.inc
                        I   0x00063c    program     static C:\Users\ivan__000\Desktop\DIGITAL 2\proyectoFinal-v5.3.X\cargaDeDatos.inc
                    IGUAL   0x00059c    program     static C:\Users\ivan__000\Desktop\DIGITAL 2\proyectoFinal-v5.3.X\cargaDeDatos.inc
               INCCENTENA   0x000114    program     static C:\Users\ivan__000\Desktop\DIGITAL 2\proyectoFinal-v5.3.X\proyectoFinal-v5.3.asm
            INCCENTENAADC   0x00018c    program     static C:\Users\ivan__000\Desktop\DIGITAL 2\proyectoFinal-v5.3.X\proyectoFinal-v5.3.asm
                INCDECENA   0x00010e    program     static C:\Users\ivan__000\Desktop\DIGITAL 2\proyectoFinal-v5.3.X\proyectoFinal-v5.3.asm
             INCDECENAADC   0x000184    program     static C:\Users\ivan__000\Desktop\DIGITAL 2\proyectoFinal-v5.3.X\proyectoFinal-v5.3.asm
                 INCHORAH   0x00013c    program     static C:\Users\ivan__000\Desktop\DIGITAL 2\proyectoFinal-v5.3.X\proyectoFinal-v5.3.asm
                 INCHORAL   0x00012c    program     static C:\Users\ivan__000\Desktop\DIGITAL 2\proyectoFinal-v5.3.X\proyectoFinal-v5.3.asm
               INCMINUTOH   0x000126    program     static C:\Users\ivan__000\Desktop\DIGITAL 2\proyectoFinal-v5.3.X\proyectoFinal-v5.3.asm
               INCMINUTOL   0x000120    program     static C:\Users\ivan__000\Desktop\DIGITAL 2\proyectoFinal-v5.3.X\proyectoFinal-v5.3.asm
              INCPUNTERO1   0x0001ab    program     static C:\Users\ivan__000\Desktop\DIGITAL 2\proyectoFinal-v5.3.X\proyectoFinal-v5.3.asm
              INCPUNTERO2   0x0001a1    program     static C:\Users\ivan__000\Desktop\DIGITAL 2\proyectoFinal-v5.3.X\proyectoFinal-v5.3.asm
           INCREMENTOHORA   0x0000f6    program     static C:\Users\ivan__000\Desktop\DIGITAL 2\proyectoFinal-v5.3.X\proyectoFinal-v5.3.asm
                INCUNIDAD   0x000108    program     static C:\Users\ivan__000\Desktop\DIGITAL 2\proyectoFinal-v5.3.X\proyectoFinal-v5.3.asm
             INCUNIDADADC   0x00017c    program     static C:\Users\ivan__000\Desktop\DIGITAL 2\proyectoFinal-v5.3.X\proyectoFinal-v5.3.asm
                 INCUNMIL   0x00011a    program     static C:\Users\ivan__000\Desktop\DIGITAL 2\proyectoFinal-v5.3.X\proyectoFinal-v5.3.asm
             INICCONFHORA   0x0001cc    program     static C:\Users\ivan__000\Desktop\DIGITAL 2\proyectoFinal-v5.3.X\proyectoFinal-v5.3.asm
                INICPANEL   0x0001b3    program     static C:\Users\ivan__000\Desktop\DIGITAL 2\proyectoFinal-v5.3.X\proyectoFinal-v5.3.asm
           INTERRUPCIONES   0x000070    program     static C:\Users\ivan__000\Desktop\DIGITAL 2\proyectoFinal-v5.3.X\proyectoFinal-v5.3.asm
             INTRECEPCION   0x0000e5    program     static C:\Users\ivan__000\Desktop\DIGITAL 2\proyectoFinal-v5.3.X\proyectoFinal-v5.3.asm
                        J   0x000648    program     static C:\Users\ivan__000\Desktop\DIGITAL 2\proyectoFinal-v5.3.X\cargaDeDatos.inc
                        K   0x000654    program     static C:\Users\ivan__000\Desktop\DIGITAL 2\proyectoFinal-v5.3.X\cargaDeDatos.inc
                        L   0x000660    program     static C:\Users\ivan__000\Desktop\DIGITAL 2\proyectoFinal-v5.3.X\cargaDeDatos.inc
                        M   0x00066c    program     static C:\Users\ivan__000\Desktop\DIGITAL 2\proyectoFinal-v5.3.X\cargaDeDatos.inc
                      MAS   0x0004ae    program     static C:\Users\ivan__000\Desktop\DIGITAL 2\proyectoFinal-v5.3.X\cargaDeDatos.inc
                    MAYOR   0x0005a8    program     static C:\Users\ivan__000\Desktop\DIGITAL 2\proyectoFinal-v5.3.X\cargaDeDatos.inc
                    MENOR   0x000590    program     static C:\Users\ivan__000\Desktop\DIGITAL 2\proyectoFinal-v5.3.X\cargaDeDatos.inc
                    MENOS   0x0004c2    program     static C:\Users\ivan__000\Desktop\DIGITAL 2\proyectoFinal-v5.3.X\cargaDeDatos.inc
          MODIFPUNTALARMA   0x0001d7    program     static C:\Users\ivan__000\Desktop\DIGITAL 2\proyectoFinal-v5.3.X\proyectoFinal-v5.3.asm
            MOSTRARALARMA   0x00015c    program     static C:\Users\ivan__000\Desktop\DIGITAL 2\proyectoFinal-v5.3.X\proyectoFinal-v5.3.asm
        MOSTRARCONFALARMA   0x000158    program     static C:\Users\ivan__000\Desktop\DIGITAL 2\proyectoFinal-v5.3.X\proyectoFinal-v5.3.asm
            MOSTRARCONFIG   0x00014c    program     static C:\Users\ivan__000\Desktop\DIGITAL 2\proyectoFinal-v5.3.X\proyectoFinal-v5.3.asm
           MOSTRARENTRADA   0x000154    program     static C:\Users\ivan__000\Desktop\DIGITAL 2\proyectoFinal-v5.3.X\proyectoFinal-v5.3.asm
              MOSTRARHORA   0x000148    program     static C:\Users\ivan__000\Desktop\DIGITAL 2\proyectoFinal-v5.3.X\proyectoFinal-v5.3.asm
              MOSTRARTEMP   0x000150    program     static C:\Users\ivan__000\Desktop\DIGITAL 2\proyectoFinal-v5.3.X\proyectoFinal-v5.3.asm
                        N   0x000678    program     static C:\Users\ivan__000\Desktop\DIGITAL 2\proyectoFinal-v5.3.X\cargaDeDatos.inc
                    NUEVE   0x00056c    program     static C:\Users\ivan__000\Desktop\DIGITAL 2\proyectoFinal-v5.3.X\cargaDeDatos.inc
                      NUM   0x00045e    program     static C:\Users\ivan__000\Desktop\DIGITAL 2\proyectoFinal-v5.3.X\cargaDeDatos.inc
                        O   0x000684    program     static C:\Users\ivan__000\Desktop\DIGITAL 2\proyectoFinal-v5.3.X\cargaDeDatos.inc
                     OCHO   0x000560    program     static C:\Users\ivan__000\Desktop\DIGITAL 2\proyectoFinal-v5.3.X\cargaDeDatos.inc
             PARENTESISAB   0x000490    program     static C:\Users\ivan__000\Desktop\DIGITAL 2\proyectoFinal-v5.3.X\cargaDeDatos.inc
            PARENTESISCER   0x00049a    program     static C:\Users\ivan__000\Desktop\DIGITAL 2\proyectoFinal-v5.3.X\cargaDeDatos.inc
                       PE   0x000690    program     static C:\Users\ivan__000\Desktop\DIGITAL 2\proyectoFinal-v5.3.X\cargaDeDatos.inc
                     PESO   0x000468    program     static C:\Users\ivan__000\Desktop\DIGITAL 2\proyectoFinal-v5.3.X\cargaDeDatos.inc
                PONERCERO   0x0003e8    program     static C:\Users\ivan__000\Desktop\DIGITAL 2\proyectoFinal-v5.3.X\cargaDeDatos.inc
              PONERPUNTOS   0x000142    program     static C:\Users\ivan__000\Desktop\DIGITAL 2\proyectoFinal-v5.3.X\proyectoFinal-v5.3.asm
                 PONERUNO   0x0003ea    program     static C:\Users\ivan__000\Desktop\DIGITAL 2\proyectoFinal-v5.3.X\cargaDeDatos.inc
               PORCENTAJE   0x000472    program     static C:\Users\ivan__000\Desktop\DIGITAL 2\proyectoFinal-v5.3.X\cargaDeDatos.inc
                PREGUNTAC   0x0005b4    program     static C:\Users\ivan__000\Desktop\DIGITAL 2\proyectoFinal-v5.3.X\cargaDeDatos.inc
                   PTCOMA   0x000584    program     static C:\Users\ivan__000\Desktop\DIGITAL 2\proyectoFinal-v5.3.X\cargaDeDatos.inc
                    PUNTO   0x0004cc    program     static C:\Users\ivan__000\Desktop\DIGITAL 2\proyectoFinal-v5.3.X\cargaDeDatos.inc
                        Q   0x00069c    program     static C:\Users\ivan__000\Desktop\DIGITAL 2\proyectoFinal-v5.3.X\cargaDeDatos.inc
              RECCONTEXTO   0x00019c    program     static C:\Users\ivan__000\Desktop\DIGITAL 2\proyectoFinal-v5.3.X\proyectoFinal-v5.3.asm
                     SEIS   0x000548    program     static C:\Users\ivan__000\Desktop\DIGITAL 2\proyectoFinal-v5.3.X\cargaDeDatos.inc
               SENSARTEMP   0x00009e    program     static C:\Users\ivan__000\Desktop\DIGITAL 2\proyectoFinal-v5.3.X\proyectoFinal-v5.3.asm
                    SIETE   0x000554    program     static C:\Users\ivan__000\Desktop\DIGITAL 2\proyectoFinal-v5.3.X\cargaDeDatos.inc
                        T   0x0006c0    program     static C:\Users\ivan__000\Desktop\DIGITAL 2\proyectoFinal-v5.3.X\cargaDeDatos.inc
                    TABLA   0x000404    program     static C:\Users\ivan__000\Desktop\DIGITAL 2\proyectoFinal-v5.3.X\cargaDeDatos.inc
                   TECLA0   0x0003ab    program     static C:\Users\ivan__000\Desktop\DIGITAL 2\proyectoFinal-v5.3.X\usoTeclado.inc
                   TECLA1   0x00032b    program     static C:\Users\ivan__000\Desktop\DIGITAL 2\proyectoFinal-v5.3.X\usoTeclado.inc
                   TECLA2   0x00032f    program     static C:\Users\ivan__000\Desktop\DIGITAL 2\proyectoFinal-v5.3.X\usoTeclado.inc
                   TECLA3   0x000333    program     static C:\Users\ivan__000\Desktop\DIGITAL 2\proyectoFinal-v5.3.X\usoTeclado.inc
                   TECLA4   0x00033b    program     static C:\Users\ivan__000\Desktop\DIGITAL 2\proyectoFinal-v5.3.X\usoTeclado.inc
                   TECLA5   0x00034b    program     static C:\Users\ivan__000\Desktop\DIGITAL 2\proyectoFinal-v5.3.X\usoTeclado.inc
                   TECLA6   0x00035b    program     static C:\Users\ivan__000\Desktop\DIGITAL 2\proyectoFinal-v5.3.X\usoTeclado.inc
                   TECLA7   0x00036f    program     static C:\Users\ivan__000\Desktop\DIGITAL 2\proyectoFinal-v5.3.X\usoTeclado.inc
                   TECLA8   0x000383    program     static C:\Users\ivan__000\Desktop\DIGITAL 2\proyectoFinal-v5.3.X\usoTeclado.inc
                   TECLA9   0x000397    program     static C:\Users\ivan__000\Desktop\DIGITAL 2\proyectoFinal-v5.3.X\usoTeclado.inc
                   TECLAA   0x0003b9    program     static C:\Users\ivan__000\Desktop\DIGITAL 2\proyectoFinal-v5.3.X\usoTeclado.inc
                 TECLAAST   0x0003af    program     static C:\Users\ivan__000\Desktop\DIGITAL 2\proyectoFinal-v5.3.X\usoTeclado.inc
                   TECLAB   0x0003bc    program     static C:\Users\ivan__000\Desktop\DIGITAL 2\proyectoFinal-v5.3.X\usoTeclado.inc
                   TECLAC   0x0003c9    program     static C:\Users\ivan__000\Desktop\DIGITAL 2\proyectoFinal-v5.3.X\usoTeclado.inc
                   TECLAD   0x0003cc    program     static C:\Users\ivan__000\Desktop\DIGITAL 2\proyectoFinal-v5.3.X\usoTeclado.inc
                  TECLADO   0x000300    program     static C:\Users\ivan__000\Desktop\DIGITAL 2\proyectoFinal-v5.3.X\usoTeclado.inc
                 TECLANUM   0x0003b2    program     static C:\Users\ivan__000\Desktop\DIGITAL 2\proyectoFinal-v5.3.X\usoTeclado.inc
                TEMPASCII   0x000193    program     static C:\Users\ivan__000\Desktop\DIGITAL 2\proyectoFinal-v5.3.X\proyectoFinal-v5.3.asm
                    TIMER   0x000078    program     static C:\Users\ivan__000\Desktop\DIGITAL 2\proyectoFinal-v5.3.X\proyectoFinal-v5.3.asm
             TIMERCONTROL   0x000087    program     static C:\Users\ivan__000\Desktop\DIGITAL 2\proyectoFinal-v5.3.X\proyectoFinal-v5.3.asm
                     TRES   0x000524    program     static C:\Users\ivan__000\Desktop\DIGITAL 2\proyectoFinal-v5.3.X\cargaDeDatos.inc
                        U   0x0006cc    program     static C:\Users\ivan__000\Desktop\DIGITAL 2\proyectoFinal-v5.3.X\cargaDeDatos.inc
              UNIDADESADC   0x00016e    program     static C:\Users\ivan__000\Desktop\DIGITAL 2\proyectoFinal-v5.3.X\proyectoFinal-v5.3.asm
                      UNO   0x00050c    program     static C:\Users\ivan__000\Desktop\DIGITAL 2\proyectoFinal-v5.3.X\cargaDeDatos.inc
                        V   0x0006d8    program     static C:\Users\ivan__000\Desktop\DIGITAL 2\proyectoFinal-v5.3.X\cargaDeDatos.inc
               VERIFMINT6   0x00036a    program     static C:\Users\ivan__000\Desktop\DIGITAL 2\proyectoFinal-v5.3.X\usoTeclado.inc
               VERIFMINT7   0x00037e    program     static C:\Users\ivan__000\Desktop\DIGITAL 2\proyectoFinal-v5.3.X\usoTeclado.inc
               VERIFMINT8   0x000392    program     static C:\Users\ivan__000\Desktop\DIGITAL 2\proyectoFinal-v5.3.X\usoTeclado.inc
               VERIFMINT9   0x0003a6    program     static C:\Users\ivan__000\Desktop\DIGITAL 2\proyectoFinal-v5.3.X\usoTeclado.inc
                       WW   0x0006e4    program     static C:\Users\ivan__000\Desktop\DIGITAL 2\proyectoFinal-v5.3.X\cargaDeDatos.inc
                        X   0x000700    program     static C:\Users\ivan__000\Desktop\DIGITAL 2\proyectoFinal-v5.3.X\cargaDeDatos.inc
                        Y   0x00070c    program     static C:\Users\ivan__000\Desktop\DIGITAL 2\proyectoFinal-v5.3.X\cargaDeDatos.inc
                     ZETA   0x000718    program     static C:\Users\ivan__000\Desktop\DIGITAL 2\proyectoFinal-v5.3.X\cargaDeDatos.inc



                              Symbols - Sorted by Address
                     Name    Address   Location    Storage File                     
                ---------  ---------  ---------  --------- ---------                
                 COMIENZO   0x000005    program     static C:\Users\ivan__000\Desktop\DIGITAL 2\proyectoFinal-v5.3.X\proyectoFinal-v5.3.asm
                 CONTROL1   0x000064    program     static C:\Users\ivan__000\Desktop\DIGITAL 2\proyectoFinal-v5.3.X\proyectoFinal-v5.3.asm
                 CONTROL2   0x000067    program     static C:\Users\ivan__000\Desktop\DIGITAL 2\proyectoFinal-v5.3.X\proyectoFinal-v5.3.asm
           INTERRUPCIONES   0x000070    program     static C:\Users\ivan__000\Desktop\DIGITAL 2\proyectoFinal-v5.3.X\proyectoFinal-v5.3.asm
                    TIMER   0x000078    program     static C:\Users\ivan__000\Desktop\DIGITAL 2\proyectoFinal-v5.3.X\proyectoFinal-v5.3.asm
             TIMERCONTROL   0x000087    program     static C:\Users\ivan__000\Desktop\DIGITAL 2\proyectoFinal-v5.3.X\proyectoFinal-v5.3.asm
                   AASCII   0x00008a    program     static C:\Users\ivan__000\Desktop\DIGITAL 2\proyectoFinal-v5.3.X\proyectoFinal-v5.3.asm
            CAMBIOBANDERA   0x000096    program     static C:\Users\ivan__000\Desktop\DIGITAL 2\proyectoFinal-v5.3.X\proyectoFinal-v5.3.asm
               SENSARTEMP   0x00009e    program     static C:\Users\ivan__000\Desktop\DIGITAL 2\proyectoFinal-v5.3.X\proyectoFinal-v5.3.asm
           CONTROLDESPLAZ   0x0000a7    program     static C:\Users\ivan__000\Desktop\DIGITAL 2\proyectoFinal-v5.3.X\proyectoFinal-v5.3.asm
              FINCTRLDESP   0x0000ae    program     static C:\Users\ivan__000\Desktop\DIGITAL 2\proyectoFinal-v5.3.X\proyectoFinal-v5.3.asm
                   ALARMA   0x0000b1    program     static C:\Users\ivan__000\Desktop\DIGITAL 2\proyectoFinal-v5.3.X\proyectoFinal-v5.3.asm
                FINCUENTA   0x0000d1    program     static C:\Users\ivan__000\Desktop\DIGITAL 2\proyectoFinal-v5.3.X\proyectoFinal-v5.3.asm
               ADCLECTURA   0x0000d4    program     static C:\Users\ivan__000\Desktop\DIGITAL 2\proyectoFinal-v5.3.X\proyectoFinal-v5.3.asm
            FINADCLECTURA   0x0000e3    program     static C:\Users\ivan__000\Desktop\DIGITAL 2\proyectoFinal-v5.3.X\proyectoFinal-v5.3.asm
             INTRECEPCION   0x0000e5    program     static C:\Users\ivan__000\Desktop\DIGITAL 2\proyectoFinal-v5.3.X\proyectoFinal-v5.3.asm
             FINRECEPCION   0x0000f2    program     static C:\Users\ivan__000\Desktop\DIGITAL 2\proyectoFinal-v5.3.X\proyectoFinal-v5.3.asm
           INCREMENTOHORA   0x0000f6    program     static C:\Users\ivan__000\Desktop\DIGITAL 2\proyectoFinal-v5.3.X\proyectoFinal-v5.3.asm
                INCUNIDAD   0x000108    program     static C:\Users\ivan__000\Desktop\DIGITAL 2\proyectoFinal-v5.3.X\proyectoFinal-v5.3.asm
                INCDECENA   0x00010e    program     static C:\Users\ivan__000\Desktop\DIGITAL 2\proyectoFinal-v5.3.X\proyectoFinal-v5.3.asm
               INCCENTENA   0x000114    program     static C:\Users\ivan__000\Desktop\DIGITAL 2\proyectoFinal-v5.3.X\proyectoFinal-v5.3.asm
                 INCUNMIL   0x00011a    program     static C:\Users\ivan__000\Desktop\DIGITAL 2\proyectoFinal-v5.3.X\proyectoFinal-v5.3.asm
               INCMINUTOL   0x000120    program     static C:\Users\ivan__000\Desktop\DIGITAL 2\proyectoFinal-v5.3.X\proyectoFinal-v5.3.asm
               INCMINUTOH   0x000126    program     static C:\Users\ivan__000\Desktop\DIGITAL 2\proyectoFinal-v5.3.X\proyectoFinal-v5.3.asm
                 INCHORAL   0x00012c    program     static C:\Users\ivan__000\Desktop\DIGITAL 2\proyectoFinal-v5.3.X\proyectoFinal-v5.3.asm
              FININCHORAL   0x000137    program     static C:\Users\ivan__000\Desktop\DIGITAL 2\proyectoFinal-v5.3.X\proyectoFinal-v5.3.asm
                 INCHORAH   0x00013c    program     static C:\Users\ivan__000\Desktop\DIGITAL 2\proyectoFinal-v5.3.X\proyectoFinal-v5.3.asm
              PONERPUNTOS   0x000142    program     static C:\Users\ivan__000\Desktop\DIGITAL 2\proyectoFinal-v5.3.X\proyectoFinal-v5.3.asm
             BORRARPUNTOS   0x000145    program     static C:\Users\ivan__000\Desktop\DIGITAL 2\proyectoFinal-v5.3.X\proyectoFinal-v5.3.asm
              MOSTRARHORA   0x000148    program     static C:\Users\ivan__000\Desktop\DIGITAL 2\proyectoFinal-v5.3.X\proyectoFinal-v5.3.asm
            MOSTRARCONFIG   0x00014c    program     static C:\Users\ivan__000\Desktop\DIGITAL 2\proyectoFinal-v5.3.X\proyectoFinal-v5.3.asm
              MOSTRARTEMP   0x000150    program     static C:\Users\ivan__000\Desktop\DIGITAL 2\proyectoFinal-v5.3.X\proyectoFinal-v5.3.asm
           MOSTRARENTRADA   0x000154    program     static C:\Users\ivan__000\Desktop\DIGITAL 2\proyectoFinal-v5.3.X\proyectoFinal-v5.3.asm
        MOSTRARCONFALARMA   0x000158    program     static C:\Users\ivan__000\Desktop\DIGITAL 2\proyectoFinal-v5.3.X\proyectoFinal-v5.3.asm
            MOSTRARALARMA   0x00015c    program     static C:\Users\ivan__000\Desktop\DIGITAL 2\proyectoFinal-v5.3.X\proyectoFinal-v5.3.asm
              CENTENASADC   0x000160    program     static C:\Users\ivan__000\Desktop\DIGITAL 2\proyectoFinal-v5.3.X\proyectoFinal-v5.3.asm
               CONVERTBCD   0x000160    program     static C:\Users\ivan__000\Desktop\DIGITAL 2\proyectoFinal-v5.3.X\proyectoFinal-v5.3.asm
               DECENASADC   0x000167    program     static C:\Users\ivan__000\Desktop\DIGITAL 2\proyectoFinal-v5.3.X\proyectoFinal-v5.3.asm
              UNIDADESADC   0x00016e    program     static C:\Users\ivan__000\Desktop\DIGITAL 2\proyectoFinal-v5.3.X\proyectoFinal-v5.3.asm
             CONTROLFINAL   0x000174    program     static C:\Users\ivan__000\Desktop\DIGITAL 2\proyectoFinal-v5.3.X\proyectoFinal-v5.3.asm
             INCUNIDADADC   0x00017c    program     static C:\Users\ivan__000\Desktop\DIGITAL 2\proyectoFinal-v5.3.X\proyectoFinal-v5.3.asm
             INCDECENAADC   0x000184    program     static C:\Users\ivan__000\Desktop\DIGITAL 2\proyectoFinal-v5.3.X\proyectoFinal-v5.3.asm
            INCCENTENAADC   0x00018c    program     static C:\Users\ivan__000\Desktop\DIGITAL 2\proyectoFinal-v5.3.X\proyectoFinal-v5.3.asm
               FINCONVERT   0x000192    program     static C:\Users\ivan__000\Desktop\DIGITAL 2\proyectoFinal-v5.3.X\proyectoFinal-v5.3.asm
                TEMPASCII   0x000193    program     static C:\Users\ivan__000\Desktop\DIGITAL 2\proyectoFinal-v5.3.X\proyectoFinal-v5.3.asm
            GUARDCONTEXTO   0x000198    program     static C:\Users\ivan__000\Desktop\DIGITAL 2\proyectoFinal-v5.3.X\proyectoFinal-v5.3.asm
              RECCONTEXTO   0x00019c    program     static C:\Users\ivan__000\Desktop\DIGITAL 2\proyectoFinal-v5.3.X\proyectoFinal-v5.3.asm
              INCPUNTERO2   0x0001a1    program     static C:\Users\ivan__000\Desktop\DIGITAL 2\proyectoFinal-v5.3.X\proyectoFinal-v5.3.asm
              INCPUNTERO1   0x0001ab    program     static C:\Users\ivan__000\Desktop\DIGITAL 2\proyectoFinal-v5.3.X\proyectoFinal-v5.3.asm
                INICPANEL   0x0001b3    program     static C:\Users\ivan__000\Desktop\DIGITAL 2\proyectoFinal-v5.3.X\proyectoFinal-v5.3.asm
             INICCONFHORA   0x0001cc    program     static C:\Users\ivan__000\Desktop\DIGITAL 2\proyectoFinal-v5.3.X\proyectoFinal-v5.3.asm
          MODIFPUNTALARMA   0x0001d7    program     static C:\Users\ivan__000\Desktop\DIGITAL 2\proyectoFinal-v5.3.X\proyectoFinal-v5.3.asm
              ASIGNARHORA   0x0001e1    program     static C:\Users\ivan__000\Desktop\DIGITAL 2\proyectoFinal-v5.3.X\proyectoFinal-v5.3.asm
              GUARDARHORA   0x0001f3    program     static C:\Users\ivan__000\Desktop\DIGITAL 2\proyectoFinal-v5.3.X\proyectoFinal-v5.3.asm
             GUARDARTEXTO   0x000203    program     static C:\Users\ivan__000\Desktop\DIGITAL 2\proyectoFinal-v5.3.X\proyectoFinal-v5.3.asm
            GUARDARALARMA   0x00020a    program     static C:\Users\ivan__000\Desktop\DIGITAL 2\proyectoFinal-v5.3.X\proyectoFinal-v5.3.asm
             ACTIVARDESPL   0x00021b    program     static C:\Users\ivan__000\Desktop\DIGITAL 2\proyectoFinal-v5.3.X\proyectoFinal-v5.3.asm
              DESACTDESPL   0x000221    program     static C:\Users\ivan__000\Desktop\DIGITAL 2\proyectoFinal-v5.3.X\proyectoFinal-v5.3.asm
           CARGARCOLVACIA   0x000223    program     static C:\Users\ivan__000\Desktop\DIGITAL 2\proyectoFinal-v5.3.X\proyectoFinal-v5.3.asm
                  TECLADO   0x000300    program     static C:\Users\ivan__000\Desktop\DIGITAL 2\proyectoFinal-v5.3.X\usoTeclado.inc
                     BIT0   0x000300    program     static C:\Users\ivan__000\Desktop\DIGITAL 2\proyectoFinal-v5.3.X\usoTeclado.inc
                     BIT1   0x00030a    program     static C:\Users\ivan__000\Desktop\DIGITAL 2\proyectoFinal-v5.3.X\usoTeclado.inc
                     BIT2   0x000314    program     static C:\Users\ivan__000\Desktop\DIGITAL 2\proyectoFinal-v5.3.X\usoTeclado.inc
                     BIT3   0x00031e    program     static C:\Users\ivan__000\Desktop\DIGITAL 2\proyectoFinal-v5.3.X\usoTeclado.inc
               FINTECLADO   0x000328    program     static C:\Users\ivan__000\Desktop\DIGITAL 2\proyectoFinal-v5.3.X\usoTeclado.inc
                   TECLA1   0x00032b    program     static C:\Users\ivan__000\Desktop\DIGITAL 2\proyectoFinal-v5.3.X\usoTeclado.inc
                   TECLA2   0x00032f    program     static C:\Users\ivan__000\Desktop\DIGITAL 2\proyectoFinal-v5.3.X\usoTeclado.inc
                   TECLA3   0x000333    program     static C:\Users\ivan__000\Desktop\DIGITAL 2\proyectoFinal-v5.3.X\usoTeclado.inc
                   TECLA4   0x00033b    program     static C:\Users\ivan__000\Desktop\DIGITAL 2\proyectoFinal-v5.3.X\usoTeclado.inc
                ASIGNART4   0x000349    program     static C:\Users\ivan__000\Desktop\DIGITAL 2\proyectoFinal-v5.3.X\usoTeclado.inc
                   TECLA5   0x00034b    program     static C:\Users\ivan__000\Desktop\DIGITAL 2\proyectoFinal-v5.3.X\usoTeclado.inc
                ASIGNART5   0x000359    program     static C:\Users\ivan__000\Desktop\DIGITAL 2\proyectoFinal-v5.3.X\usoTeclado.inc
                   TECLA6   0x00035b    program     static C:\Users\ivan__000\Desktop\DIGITAL 2\proyectoFinal-v5.3.X\usoTeclado.inc
               VERIFMINT6   0x00036a    program     static C:\Users\ivan__000\Desktop\DIGITAL 2\proyectoFinal-v5.3.X\usoTeclado.inc
                   TECLA7   0x00036f    program     static C:\Users\ivan__000\Desktop\DIGITAL 2\proyectoFinal-v5.3.X\usoTeclado.inc
               VERIFMINT7   0x00037e    program     static C:\Users\ivan__000\Desktop\DIGITAL 2\proyectoFinal-v5.3.X\usoTeclado.inc
                   TECLA8   0x000383    program     static C:\Users\ivan__000\Desktop\DIGITAL 2\proyectoFinal-v5.3.X\usoTeclado.inc
               VERIFMINT8   0x000392    program     static C:\Users\ivan__000\Desktop\DIGITAL 2\proyectoFinal-v5.3.X\usoTeclado.inc
                   TECLA9   0x000397    program     static C:\Users\ivan__000\Desktop\DIGITAL 2\proyectoFinal-v5.3.X\usoTeclado.inc
               VERIFMINT9   0x0003a6    program     static C:\Users\ivan__000\Desktop\DIGITAL 2\proyectoFinal-v5.3.X\usoTeclado.inc
                   TECLA0   0x0003ab    program     static C:\Users\ivan__000\Desktop\DIGITAL 2\proyectoFinal-v5.3.X\usoTeclado.inc
                 TECLAAST   0x0003af    program     static C:\Users\ivan__000\Desktop\DIGITAL 2\proyectoFinal-v5.3.X\usoTeclado.inc
                 TECLANUM   0x0003b2    program     static C:\Users\ivan__000\Desktop\DIGITAL 2\proyectoFinal-v5.3.X\usoTeclado.inc
                   TECLAA   0x0003b9    program     static C:\Users\ivan__000\Desktop\DIGITAL 2\proyectoFinal-v5.3.X\usoTeclado.inc
                   TECLAB   0x0003bc    program     static C:\Users\ivan__000\Desktop\DIGITAL 2\proyectoFinal-v5.3.X\usoTeclado.inc
                   TECLAC   0x0003c9    program     static C:\Users\ivan__000\Desktop\DIGITAL 2\proyectoFinal-v5.3.X\usoTeclado.inc
                   TECLAD   0x0003cc    program     static C:\Users\ivan__000\Desktop\DIGITAL 2\proyectoFinal-v5.3.X\usoTeclado.inc
              CARGARDATOS   0x0003cd    program     static C:\Users\ivan__000\Desktop\DIGITAL 2\proyectoFinal-v5.3.X\cargaDeDatos.inc
           CARGARCARACTER   0x0003da    program     static C:\Users\ivan__000\Desktop\DIGITAL 2\proyectoFinal-v5.3.X\cargaDeDatos.inc
                CARGARBIT   0x0003dc    program     static C:\Users\ivan__000\Desktop\DIGITAL 2\proyectoFinal-v5.3.X\cargaDeDatos.inc
                ENVIARBIT   0x0003df    program     static C:\Users\ivan__000\Desktop\DIGITAL 2\proyectoFinal-v5.3.X\cargaDeDatos.inc
                 FINENVIO   0x0003e2    program     static C:\Users\ivan__000\Desktop\DIGITAL 2\proyectoFinal-v5.3.X\cargaDeDatos.inc
                PONERCERO   0x0003e8    program     static C:\Users\ivan__000\Desktop\DIGITAL 2\proyectoFinal-v5.3.X\cargaDeDatos.inc
                 PONERUNO   0x0003ea    program     static C:\Users\ivan__000\Desktop\DIGITAL 2\proyectoFinal-v5.3.X\cargaDeDatos.inc
               CAMBIOFILA   0x0003ec    program     static C:\Users\ivan__000\Desktop\DIGITAL 2\proyectoFinal-v5.3.X\cargaDeDatos.inc
               BUSCARFILA   0x000400    program     static C:\Users\ivan__000\Desktop\DIGITAL 2\proyectoFinal-v5.3.X\cargaDeDatos.inc
                    TABLA   0x000404    program     static C:\Users\ivan__000\Desktop\DIGITAL 2\proyectoFinal-v5.3.X\cargaDeDatos.inc
                  ESPACIO   0x000440    program     static C:\Users\ivan__000\Desktop\DIGITAL 2\proyectoFinal-v5.3.X\cargaDeDatos.inc
                     EXCL   0x00044a    program     static C:\Users\ivan__000\Desktop\DIGITAL 2\proyectoFinal-v5.3.X\cargaDeDatos.inc
                 COMILLAD   0x000454    program     static C:\Users\ivan__000\Desktop\DIGITAL 2\proyectoFinal-v5.3.X\cargaDeDatos.inc
                      NUM   0x00045e    program     static C:\Users\ivan__000\Desktop\DIGITAL 2\proyectoFinal-v5.3.X\cargaDeDatos.inc
                     PESO   0x000468    program     static C:\Users\ivan__000\Desktop\DIGITAL 2\proyectoFinal-v5.3.X\cargaDeDatos.inc
               PORCENTAJE   0x000472    program     static C:\Users\ivan__000\Desktop\DIGITAL 2\proyectoFinal-v5.3.X\cargaDeDatos.inc
                AMPERSAND   0x00047c    program     static C:\Users\ivan__000\Desktop\DIGITAL 2\proyectoFinal-v5.3.X\cargaDeDatos.inc
                 COMILLAS   0x000486    program     static C:\Users\ivan__000\Desktop\DIGITAL 2\proyectoFinal-v5.3.X\cargaDeDatos.inc
             PARENTESISAB   0x000490    program     static C:\Users\ivan__000\Desktop\DIGITAL 2\proyectoFinal-v5.3.X\cargaDeDatos.inc
            PARENTESISCER   0x00049a    program     static C:\Users\ivan__000\Desktop\DIGITAL 2\proyectoFinal-v5.3.X\cargaDeDatos.inc
                      AST   0x0004a4    program     static C:\Users\ivan__000\Desktop\DIGITAL 2\proyectoFinal-v5.3.X\cargaDeDatos.inc
                      MAS   0x0004ae    program     static C:\Users\ivan__000\Desktop\DIGITAL 2\proyectoFinal-v5.3.X\cargaDeDatos.inc
                     COMA   0x0004b8    program     static C:\Users\ivan__000\Desktop\DIGITAL 2\proyectoFinal-v5.3.X\cargaDeDatos.inc
                    MENOS   0x0004c2    program     static C:\Users\ivan__000\Desktop\DIGITAL 2\proyectoFinal-v5.3.X\cargaDeDatos.inc
                    PUNTO   0x0004cc    program     static C:\Users\ivan__000\Desktop\DIGITAL 2\proyectoFinal-v5.3.X\cargaDeDatos.inc
                    BARRA   0x0004d6    program     static C:\Users\ivan__000\Desktop\DIGITAL 2\proyectoFinal-v5.3.X\cargaDeDatos.inc
                     CERO   0x000500    program     static C:\Users\ivan__000\Desktop\DIGITAL 2\proyectoFinal-v5.3.X\cargaDeDatos.inc
                      UNO   0x00050c    program     static C:\Users\ivan__000\Desktop\DIGITAL 2\proyectoFinal-v5.3.X\cargaDeDatos.inc
                      DOS   0x000518    program     static C:\Users\ivan__000\Desktop\DIGITAL 2\proyectoFinal-v5.3.X\cargaDeDatos.inc
                     TRES   0x000524    program     static C:\Users\ivan__000\Desktop\DIGITAL 2\proyectoFinal-v5.3.X\cargaDeDatos.inc
                   CUATRO   0x000530    program     static C:\Users\ivan__000\Desktop\DIGITAL 2\proyectoFinal-v5.3.X\cargaDeDatos.inc
                    CINCO   0x00053c    program     static C:\Users\ivan__000\Desktop\DIGITAL 2\proyectoFinal-v5.3.X\cargaDeDatos.inc
                     SEIS   0x000548    program     static C:\Users\ivan__000\Desktop\DIGITAL 2\proyectoFinal-v5.3.X\cargaDeDatos.inc
                    SIETE   0x000554    program     static C:\Users\ivan__000\Desktop\DIGITAL 2\proyectoFinal-v5.3.X\cargaDeDatos.inc
                     OCHO   0x000560    program     static C:\Users\ivan__000\Desktop\DIGITAL 2\proyectoFinal-v5.3.X\cargaDeDatos.inc
                    NUEVE   0x00056c    program     static C:\Users\ivan__000\Desktop\DIGITAL 2\proyectoFinal-v5.3.X\cargaDeDatos.inc
                    DOSPT   0x000578    program     static C:\Users\ivan__000\Desktop\DIGITAL 2\proyectoFinal-v5.3.X\cargaDeDatos.inc
                   PTCOMA   0x000584    program     static C:\Users\ivan__000\Desktop\DIGITAL 2\proyectoFinal-v5.3.X\cargaDeDatos.inc
                    MENOR   0x000590    program     static C:\Users\ivan__000\Desktop\DIGITAL 2\proyectoFinal-v5.3.X\cargaDeDatos.inc
                    IGUAL   0x00059c    program     static C:\Users\ivan__000\Desktop\DIGITAL 2\proyectoFinal-v5.3.X\cargaDeDatos.inc
                    MAYOR   0x0005a8    program     static C:\Users\ivan__000\Desktop\DIGITAL 2\proyectoFinal-v5.3.X\cargaDeDatos.inc
                PREGUNTAC   0x0005b4    program     static C:\Users\ivan__000\Desktop\DIGITAL 2\proyectoFinal-v5.3.X\cargaDeDatos.inc
                   ARROBA   0x0005c0    program     static C:\Users\ivan__000\Desktop\DIGITAL 2\proyectoFinal-v5.3.X\cargaDeDatos.inc
                        A   0x0005cc    program     static C:\Users\ivan__000\Desktop\DIGITAL 2\proyectoFinal-v5.3.X\cargaDeDatos.inc
                       BE   0x0005d8    program     static C:\Users\ivan__000\Desktop\DIGITAL 2\proyectoFinal-v5.3.X\cargaDeDatos.inc
                       CE   0x0005e4    program     static C:\Users\ivan__000\Desktop\DIGITAL 2\proyectoFinal-v5.3.X\cargaDeDatos.inc
                      DEE   0x000600    program     static C:\Users\ivan__000\Desktop\DIGITAL 2\proyectoFinal-v5.3.X\cargaDeDatos.inc
                        E   0x00060c    program     static C:\Users\ivan__000\Desktop\DIGITAL 2\proyectoFinal-v5.3.X\cargaDeDatos.inc
                      EFE   0x000618    program     static C:\Users\ivan__000\Desktop\DIGITAL 2\proyectoFinal-v5.3.X\cargaDeDatos.inc
                        G   0x000624    program     static C:\Users\ivan__000\Desktop\DIGITAL 2\proyectoFinal-v5.3.X\cargaDeDatos.inc
                        H   0x000630    program     static C:\Users\ivan__000\Desktop\DIGITAL 2\proyectoFinal-v5.3.X\cargaDeDatos.inc
                        I   0x00063c    program     static C:\Users\ivan__000\Desktop\DIGITAL 2\proyectoFinal-v5.3.X\cargaDeDatos.inc
                        J   0x000648    program     static C:\Users\ivan__000\Desktop\DIGITAL 2\proyectoFinal-v5.3.X\cargaDeDatos.inc
                        K   0x000654    program     static C:\Users\ivan__000\Desktop\DIGITAL 2\proyectoFinal-v5.3.X\cargaDeDatos.inc
                        L   0x000660    program     static C:\Users\ivan__000\Desktop\DIGITAL 2\proyectoFinal-v5.3.X\cargaDeDatos.inc
                        M   0x00066c    program     static C:\Users\ivan__000\Desktop\DIGITAL 2\proyectoFinal-v5.3.X\cargaDeDatos.inc
                        N   0x000678    program     static C:\Users\ivan__000\Desktop\DIGITAL 2\proyectoFinal-v5.3.X\cargaDeDatos.inc
                        O   0x000684    program     static C:\Users\ivan__000\Desktop\DIGITAL 2\proyectoFinal-v5.3.X\cargaDeDatos.inc
                       PE   0x000690    program     static C:\Users\ivan__000\Desktop\DIGITAL 2\proyectoFinal-v5.3.X\cargaDeDatos.inc
                        Q   0x00069c    program     static C:\Users\ivan__000\Desktop\DIGITAL 2\proyectoFinal-v5.3.X\cargaDeDatos.inc
                      ERE   0x0006a8    program     static C:\Users\ivan__000\Desktop\DIGITAL 2\proyectoFinal-v5.3.X\cargaDeDatos.inc
                      ESE   0x0006b4    program     static C:\Users\ivan__000\Desktop\DIGITAL 2\proyectoFinal-v5.3.X\cargaDeDatos.inc
                        T   0x0006c0    program     static C:\Users\ivan__000\Desktop\DIGITAL 2\proyectoFinal-v5.3.X\cargaDeDatos.inc
                        U   0x0006cc    program     static C:\Users\ivan__000\Desktop\DIGITAL 2\proyectoFinal-v5.3.X\cargaDeDatos.inc
                        V   0x0006d8    program     static C:\Users\ivan__000\Desktop\DIGITAL 2\proyectoFinal-v5.3.X\cargaDeDatos.inc
                       WW   0x0006e4    program     static C:\Users\ivan__000\Desktop\DIGITAL 2\proyectoFinal-v5.3.X\cargaDeDatos.inc
                        X   0x000700    program     static C:\Users\ivan__000\Desktop\DIGITAL 2\proyectoFinal-v5.3.X\cargaDeDatos.inc
                        Y   0x00070c    program     static C:\Users\ivan__000\Desktop\DIGITAL 2\proyectoFinal-v5.3.X\cargaDeDatos.inc
                     ZETA   0x000718    program     static C:\Users\ivan__000\Desktop\DIGITAL 2\proyectoFinal-v5.3.X\cargaDeDatos.inc
            HABILITARFILA   0x000724    program     static C:\Users\ivan__000\Desktop\DIGITAL 2\proyectoFinal-v5.3.X\cargaDeDatos.inc
                    FILA0   0x000730    program     static C:\Users\ivan__000\Desktop\DIGITAL 2\proyectoFinal-v5.3.X\cargaDeDatos.inc
                    FILA1   0x000732    program     static C:\Users\ivan__000\Desktop\DIGITAL 2\proyectoFinal-v5.3.X\cargaDeDatos.inc
                    FILA2   0x000734    program     static C:\Users\ivan__000\Desktop\DIGITAL 2\proyectoFinal-v5.3.X\cargaDeDatos.inc
                    FILA3   0x000736    program     static C:\Users\ivan__000\Desktop\DIGITAL 2\proyectoFinal-v5.3.X\cargaDeDatos.inc
                    FILA4   0x000738    program     static C:\Users\ivan__000\Desktop\DIGITAL 2\proyectoFinal-v5.3.X\cargaDeDatos.inc
                    FILA5   0x00073a    program     static C:\Users\ivan__000\Desktop\DIGITAL 2\proyectoFinal-v5.3.X\cargaDeDatos.inc
                    FILA6   0x00073c    program     static C:\Users\ivan__000\Desktop\DIGITAL 2\proyectoFinal-v5.3.X\cargaDeDatos.inc
                    FILA7   0x00073e    program     static C:\Users\ivan__000\Desktop\DIGITAL 2\proyectoFinal-v5.3.X\cargaDeDatos.inc


