MPASM 5.66                       TECLADO.ASM   5-6-2016  21:21:45         PAGE  1


LOC  OBJECT CODE     LINE SOURCE TEXT
  VALUE

                      00001   list p=16f887
                      00002 #include "p16f887.inc"
                      00001         LIST
                      00002 
                      00003 ;==========================================================================
                      00004 ; Build date : Feb 01 2016
                      00005 ;  MPASM PIC16F887 processor include
                      00006 ; 
                      00007 ;  (c) Copyright 1999-2016 Microchip Technology, All rights reserved
                      00008 ;==========================================================================
                      00009 
                      00810         LIST
                      00003 
                      00004 ; CONFIG1
                      00005 ; __config 0xFFE1
2007   27E1           00006  __CONFIG _CONFIG1, _FOSC_XT & _WDTE_OFF & _PWRTE_ON & _MCLRE_ON & _CP_OFF & _CPD_OFF & _BOREN_ON & _IES
                            O_ON & _FCMEN_OFF & _LVP_OFF
                      00007 ; CONFIG2
                      00008 ; __config 0xFFFF
2008   3FFF           00009  __CONFIG _CONFIG2, _BOR4V_BOR40V & _WRT_OFF
                      00010  
Warning[207]: Found label after column 1. (w_temp)
  00000070            00011  w_temp equ 0x70
Warning[207]: Found label after column 1. (status_temp)
  00000071            00012  status_temp equ 0x71
Warning[207]: Found label after column 1. (mult)
  00000020            00013  mult equ 0x20
Warning[207]: Found label after column 1. (numero)
  00000021            00014  numero equ 0x21
Warning[207]: Found label after column 1. (unidad)
  00000022            00015  unidad equ 0x22
Warning[207]: Found label after column 1. (decena)
  00000023            00016  decena equ 0x23
Warning[207]: Found label after column 1. (undec)
  00000024            00017  undec equ 0x24
                      00018  
                      00019  org 0x00
0000   2???           00020  goto COMIENZO
                      00021  org 0x04
0004   2???           00022  goto INTERRUPCION
                      00023  
Warning[207]: Found label after column 1. (COMIENZO)
0005                  00024  COMIENZO
0005   1683           00025     bsf STATUS,RP0
0006   1703           00026     bsf STATUS,RP1 ; banco 3
Message[302]: Register in operand not in bank 0.  Ensure that bank bits are correct.
0007   0189           00027     clrf ANSELH ; e/s digital portb
0008   30F0           00028     movlw b'11110000'
Message[302]: Register in operand not in bank 0.  Ensure that bank bits are correct.
0009   0086           00029     movwf TRISB ; entrada <7:4> / salida <3:0>
Message[302]: Register in operand not in bank 0.  Ensure that bank bits are correct.
000A   1381           00030     bcf OPTION_REG,7 ;habilito permisos de pull up
000B   3088           00031     movlw b'10001000'
MPASM 5.66                       TECLADO.ASM   5-6-2016  21:21:45         PAGE  2


LOC  OBJECT CODE     LINE SOURCE TEXT
  VALUE

000C   008B           00032     movwf INTCON ;configuro interrupcion por cambios en portb y habilito interrupcion global
000D   1303           00033     bcf STATUS,RP1 ; banco 1
000E   30FF           00034     movlw b'11111111'
Message[302]: Register in operand not in bank 0.  Ensure that bank bits are correct.
000F   0096           00035     movwf IOCB
0010   30F0           00036     movlw b'11110000'
Message[302]: Register in operand not in bank 0.  Ensure that bank bits are correct.
0011   0095           00037     movwf WPUB ; resistencias de pull up bits <4:7>
Message[302]: Register in operand not in bank 0.  Ensure that bank bits are correct.
0012   0188           00038     clrf TRISD ; portd como salida
Message[302]: Register in operand not in bank 0.  Ensure that bank bits are correct.
0013   0187           00039     clrf TRISC
0014   1283           00040     bcf STATUS,RP0 ; banco 0
0015   0188           00041     clrf PORTD
0016   0186           00042     clrf PORTB
0017   1024           00043     bcf undec,0 ; bandera comenzara guardando en unidad
0018   3000           00044     movlw d'0'
0019   2???           00045     call TABLA
001A   00A2           00046     movwf unidad
                      00047     
                      00048     
001B                  00049 PRINCIPAL
001B   0822           00050     movf unidad,0
001C   0088           00051     movwf PORTD
001D   2???           00052     goto PRINCIPAL
                      00053 
                      00054     
                      00055     
001E                  00056 INTERRUPCION
                      00057    ; movlw b'00001110'
                      00058    ; movwf PORTB ; comienzo a probar si en la columna del bit RB0 se pulso la tecla
                      00059 ;BIT0
                      00060  ;   btfss PORTB,4 ;se apreto tecla en la fila de RB4? (0 si/1 no)
                      00061   ;  goto UNO
                      00062    ; btfss PORTB,5
                      00063    ; goto CUATRO
                      00064    ; btfss PORTB,6
                      00065    ; goto SIETE
                      00066    ; btfss PORTB,7
                      00067    ; goto AST
                      00068     
001E                  00069 BIT1                ; pruebo columna de RB1
001E   300D           00070     movlw b'00001101'
001F   0086           00071     movwf PORTB
0020   1E06           00072     btfss PORTB,4 ;se apreto tecla en la fila de RB4? (0 si/1 no)
0021   2???           00073     goto TRES
0022   1E86           00074     btfss PORTB,5
0023   2???           00075     goto SEIS
0024   1F06           00076     btfss PORTB,6
0025   2???           00077     goto NUEVE
0026   1F86           00078     btfss PORTB,7
0027   2???           00079     goto NUM
                      00080     
MPASM 5.66                       TECLADO.ASM   5-6-2016  21:21:45         PAGE  3


LOC  OBJECT CODE     LINE SOURCE TEXT
  VALUE

0028                  00081 BIT2
0028   300B           00082     movlw b'00001011'
0029   0086           00083     movwf PORTB
002A   1E06           00084     btfss PORTB,4 ;se apreto tecla en la fila de RB4? (0 si/1 no)
002B   2???           00085     goto DOS
002C   1E86           00086     btfss PORTB,5
002D   2???           00087     goto CINCO
002E   1F06           00088     btfss PORTB,6
002F   2???           00089     goto OCHO
0030   1F86           00090     btfss PORTB,7
0031   2???           00091     goto CERO
                      00092     
0032                  00093 BIT3
0032   3007           00094     movlw b'00000111'
0033   0086           00095     movwf PORTB
0034   1E06           00096     btfss PORTB,4 ;se apreto tecla en la fila de RB4? (0 si/1 no)
0035   2???           00097     goto UNO
0036   1E86           00098     btfss PORTB,5
0037   2???           00099     goto CUATRO
0038   1F06           00100     btfss PORTB,6
0039   2???           00101     goto SIETE
003A   1F86           00102     btfss PORTB,7
003B   2???           00103     goto AST
                      00104     
003C                  00105 NADAAPRETADO
003C   300F           00106     movlw b'00001111'
003D   0086           00107     movwf PORTB
003E   2???           00108     goto FIN
                      00109 
003F                  00110 FIN
003F   0186           00111     clrf PORTB
                      00112     ;comf undec,1 ; cambia la bandera en bit 0 para ver si se guarda en unidad o decena
0040   100B           00113     bcf INTCON,RBIF
0041   0009           00114     retfie
                      00115     
0042                  00116 UNO
0042   3001           00117     movlw d'1'
0043   2???           00118     call TABLA
0044   00A2           00119     movwf unidad
0045   2???           00120     goto FIN
                      00121     
0046                  00122 DOS
0046   3002           00123     movlw d'2'
0047   2???           00124     call TABLA
0048   0088           00125     movwf PORTD
0049   2???           00126     goto FIN
                      00127     
004A                  00128 TRES
004A   3003           00129     movlw d'3'
004B   2???           00130     call TABLA
004C   0088           00131     movwf PORTD
004D   2???           00132     goto FIN
                      00133     
MPASM 5.66                       TECLADO.ASM   5-6-2016  21:21:45         PAGE  4


LOC  OBJECT CODE     LINE SOURCE TEXT
  VALUE

004E                  00134 CUATRO
004E   3004           00135     movlw d'4'
004F   2???           00136     call TABLA
0050   0088           00137     movwf PORTD
0051   2???           00138     goto FIN
                      00139     
0052                  00140 CINCO
0052   3005           00141     movlw d'5'
0053   2???           00142     call TABLA
0054   0088           00143     movwf PORTD
0055   2???           00144     goto FIN
                      00145     
0056                  00146 SEIS
0056   3006           00147     movlw d'6'
0057   2???           00148     call TABLA
0058   0088           00149     movwf PORTD
0059   2???           00150     goto FIN
                      00151     
005A                  00152 SIETE
005A   3007           00153     movlw d'7'
005B   2???           00154     call TABLA
005C   0088           00155     movwf PORTD
005D   2???           00156     goto FIN
                      00157     
005E                  00158 OCHO
005E   3008           00159     movlw d'8'
005F   2???           00160     call TABLA
0060   0088           00161     movwf PORTD
0061   2???           00162     goto FIN
                      00163     
0062                  00164 NUEVE
0062   3009           00165     movlw d'9'
0063   2???           00166     call TABLA
0064   0088           00167     movwf PORTD
0065   2???           00168     goto FIN
                      00169     
0066                  00170 CERO
0066   3000           00171     movlw d'0'
0067   2???           00172     call TABLA
0068   0088           00173     movwf PORTD
0069   2???           00174     goto FIN
                      00175     
006A                  00176 AST
006A   3000           00177     movlw d'0'
006B   2???           00178     call TABLA
006C   0088           00179     movwf PORTD
006D   2???           00180     goto FIN
                      00181     
006E                  00182 NUM
006E   3000           00183     movlw d'0'
006F   2???           00184     call TABLA
0070   0088           00185     movwf PORTD
0071   2???           00186     goto FIN
MPASM 5.66                       TECLADO.ASM   5-6-2016  21:21:45         PAGE  5


LOC  OBJECT CODE     LINE SOURCE TEXT
  VALUE

                      00187     
0072                  00188 TABLA
                      00189     ;movf contador,0
0072   0782           00190     addwf PCL,1
0073   343F           00191     retlw b'00111111'
0074   3406           00192     retlw b'00000110'
0075   345B           00193     retlw b'01011011'
0076   344F           00194     retlw b'01001111'
0077   3466           00195     retlw b'01100110'
0078   346D           00196     retlw b'01101101'
0079   347D           00197     retlw b'01111101'
007A   3407           00198     retlw b'00000111'
007B   347F           00199     retlw b'01111111'
007C   346F           00200     retlw b'01101111'
                      00201 
27E1 3FFF             00202     end
MPASM 5.66                       TECLADO.ASM   5-6-2016  21:21:45         PAGE  6


SYMBOL TABLE
  LABEL                             VALUE 

ABDEN                             00000000
ABDOVF                            00000007
ACKDT                             00000005
ACKEN                             00000004
ACKSTAT                           00000006
ADCON0                            0000001F
ADCON1                            0000009F
ADCS0                             00000006
ADCS1                             00000007
ADDEN                             00000003
ADFM                              00000007
ADIE                              00000006
ADIF                              00000006
ADON                              00000000
ADRESH                            0000001E
ADRESL                            0000009E
ANS0                              00000000
ANS1                              00000001
ANS10                             00000002
ANS11                             00000003
ANS12                             00000004
ANS13                             00000005
ANS2                              00000002
ANS3                              00000003
ANS4                              00000004
ANS5                              00000005
ANS6                              00000006
ANS7                              00000007
ANS8                              00000000
ANS9                              00000001
ANSEL                             00000188
ANSELH                            00000189
AST                               0000006A
BAUDCTL                           00000187
BCLIE                             00000003
BCLIF                             00000003
BF                                00000000
BIT1                              0000001E
BIT2                              00000028
BIT3                              00000032
BRG0                              00000000
BRG1                              00000001
BRG10                             00000002
BRG11                             00000003
BRG12                             00000004
BRG13                             00000005
BRG14                             00000006
BRG15                             00000007
BRG16                             00000003
BRG2                              00000002
BRG3                              00000003
BRG4                              00000004
BRG5                              00000005
MPASM 5.66                       TECLADO.ASM   5-6-2016  21:21:45         PAGE  7


SYMBOL TABLE
  LABEL                             VALUE 

BRG6                              00000006
BRG7                              00000007
BRG8                              00000000
BRG9                              00000001
BRGH                              00000002
C                                 00000000
C1CH0                             00000000
C1CH1                             00000001
C1IE                              00000005
C1IF                              00000005
C1OE                              00000005
C1ON                              00000007
C1OUT                             00000006
C1POL                             00000004
C1R                               00000002
C1RSEL                            00000005
C1SEN                             00000005
C2CH0                             00000000
C2CH1                             00000001
C2IE                              00000006
C2IF                              00000006
C2OE                              00000005
C2ON                              00000007
C2OUT                             00000006
C2POL                             00000004
C2R                               00000002
C2REN                             00000004
C2RSEL                            00000004
C2SYNC                            00000000
CCP1CON                           00000017
CCP1IE                            00000002
CCP1IF                            00000002
CCP1M0                            00000000
CCP1M1                            00000001
CCP1M2                            00000002
CCP1M3                            00000003
CCP1X                             00000005
CCP1Y                             00000004
CCP2CON                           0000001D
CCP2IE                            00000000
CCP2IF                            00000000
CCP2M0                            00000000
CCP2M1                            00000001
CCP2M2                            00000002
CCP2M3                            00000003
CCP2X                             00000005
CCP2Y                             00000004
CCPR1                             00000015
CCPR1H                            00000016
CCPR1L                            00000015
CCPR2                             0000001B
CCPR2H                            0000001C
CCPR2L                            0000001B
MPASM 5.66                       TECLADO.ASM   5-6-2016  21:21:45         PAGE  8


SYMBOL TABLE
  LABEL                             VALUE 

CERO                              00000066
CHS0                              00000002
CHS1                              00000003
CHS2                              00000004
CHS3                              00000005
CINCO                             00000052
CKE                               00000006
CKP                               00000004
CM1CON0                           00000107
CM2CON0                           00000108
CM2CON1                           00000109
COMIENZO                          00000005
CREN                              00000004
CSRC                              00000007
CUATRO                            0000004E
D                                 00000005
DATA_ADDRESS                      00000005
DC                                00000001
DC1B0                             00000004
DC1B1                             00000005
DC2B0                             00000004
DC2B1                             00000005
DOS                               00000046
D_A                               00000005
D_NOT_A                           00000005
ECCPAS                            0000009C
ECCPAS0                           00000004
ECCPAS1                           00000005
ECCPAS2                           00000006
ECCPASE                           00000007
EEADR                             0000010D
EEADRH                            0000010F
EECON1                            0000018C
EECON2                            0000018D
EEDAT                             0000010C
EEDATA                            0000010C
EEDATH                            0000010E
EEIE                              00000004
EEIF                              00000004
EEPGD                             00000007
F                                 00000001
FERR                              00000002
FIN                               0000003F
FSR                               00000004
FVREN                             00000000
GCEN                              00000007
GIE                               00000007
GO                                00000001
GO_DONE                           00000001
GO_NOT_DONE                       00000001
HTS                               00000002
I2C_DATA                          00000005
I2C_READ                          00000002
MPASM 5.66                       TECLADO.ASM   5-6-2016  21:21:45         PAGE  9


SYMBOL TABLE
  LABEL                             VALUE 

I2C_START                         00000003
I2C_STOP                          00000004
INDF                              00000000
INTCON                            0000000B
INTE                              00000004
INTEDG                            00000006
INTERRUPCION                      0000001E
INTF                              00000001
IOCB                              00000096
IOCB0                             00000000
IOCB1                             00000001
IOCB2                             00000002
IOCB3                             00000003
IOCB4                             00000004
IOCB5                             00000005
IOCB6                             00000006
IOCB7                             00000007
IRCF0                             00000004
IRCF1                             00000005
IRCF2                             00000006
IRP                               00000007
LTS                               00000001
MC1OUT                            00000007
MC2OUT                            00000006
MSK                               00000093
MSK0                              00000000
MSK1                              00000001
MSK2                              00000002
MSK3                              00000003
MSK4                              00000004
MSK5                              00000005
MSK6                              00000006
MSK7                              00000007
NADAAPRETADO                      0000003C
NOT_A                             00000005
NOT_ADDRESS                       00000005
NOT_BO                            00000000
NOT_BOR                           00000000
NOT_DONE                          00000001
NOT_PD                            00000003
NOT_POR                           00000001
NOT_RBPU                          00000007
NOT_RC8                           00000006
NOT_T1SYNC                        00000002
NOT_TO                            00000004
NOT_TX8                           00000006
NOT_W                             00000002
NOT_WRITE                         00000002
NUEVE                             00000062
NUM                               0000006E
OCHO                              0000005E
OERR                              00000001
OPTION_REG                        00000081
MPASM 5.66                       TECLADO.ASM   5-6-2016  21:21:45         PAGE 10


SYMBOL TABLE
  LABEL                             VALUE 

OSCCON                            0000008F
OSCTUNE                           00000090
OSFIE                             00000007
OSFIF                             00000007
OSTS                              00000003
P                                 00000004
P1M0                              00000006
P1M1                              00000007
PCL                               00000002
PCLATH                            0000000A
PCON                              0000008E
PDC0                              00000000
PDC1                              00000001
PDC2                              00000002
PDC3                              00000003
PDC4                              00000004
PDC5                              00000005
PDC6                              00000006
PEIE                              00000006
PEN                               00000002
PIE1                              0000008C
PIE2                              0000008D
PIR1                              0000000C
PIR2                              0000000D
PORTA                             00000005
PORTB                             00000006
PORTC                             00000007
PORTD                             00000008
PORTE                             00000009
PR2                               00000092
PRINCIPAL                         0000001B
PRSEN                             00000007
PS0                               00000000
PS1                               00000001
PS2                               00000002
PSA                               00000003
PSSAC0                            00000002
PSSAC1                            00000003
PSSBD0                            00000000
PSSBD1                            00000001
PSTRCON                           0000009D
PULSR                             00000002
PULSS                             00000003
PWM1CON                           0000009B
R                                 00000002
RA0                               00000000
RA1                               00000001
RA2                               00000002
RA3                               00000003
RA4                               00000004
RA5                               00000005
RA6                               00000006
RA7                               00000007
MPASM 5.66                       TECLADO.ASM   5-6-2016  21:21:45         PAGE 11


SYMBOL TABLE
  LABEL                             VALUE 

RB0                               00000000
RB1                               00000001
RB2                               00000002
RB3                               00000003
RB4                               00000004
RB5                               00000005
RB6                               00000006
RB7                               00000007
RBIE                              00000003
RBIF                              00000000
RC0                               00000000
RC1                               00000001
RC2                               00000002
RC3                               00000003
RC4                               00000004
RC5                               00000005
RC6                               00000006
RC7                               00000007
RC8_9                             00000006
RC9                               00000006
RCD8                              00000000
RCEN                              00000003
RCIDL                             00000006
RCIE                              00000005
RCIF                              00000005
RCREG                             0000001A
RCSTA                             00000018
RD                                00000000
RD0                               00000000
RD1                               00000001
RD2                               00000002
RD3                               00000003
RD4                               00000004
RD5                               00000005
RD6                               00000006
RD7                               00000007
RE0                               00000000
RE1                               00000001
RE2                               00000002
RE3                               00000003
READ_WRITE                        00000002
RP0                               00000005
RP1                               00000006
RSEN                              00000001
RX9                               00000006
RX9D                              00000000
R_NOT_W                           00000002
R_W                               00000002
S                                 00000003
SBOREN                            00000004
SCKP                              00000004
SCS                               00000000
SEIS                              00000056
MPASM 5.66                       TECLADO.ASM   5-6-2016  21:21:45         PAGE 12


SYMBOL TABLE
  LABEL                             VALUE 

SEN                               00000000
SENDB                             00000003
SIETE                             0000005A
SMP                               00000007
SPBRG                             00000099
SPBRGH                            0000009A
SPEN                              00000007
SR0                               00000006
SR1                               00000007
SRCON                             00000185
SREN                              00000005
SSPADD                            00000093
SSPBUF                            00000013
SSPCON                            00000014
SSPCON2                           00000091
SSPEN                             00000005
SSPIE                             00000003
SSPIF                             00000003
SSPM0                             00000000
SSPM1                             00000001
SSPM2                             00000002
SSPM3                             00000003
SSPMSK                            00000093
SSPOV                             00000006
SSPSTAT                           00000094
STATUS                            00000003
STRA                              00000000
STRB                              00000001
STRC                              00000002
STRD                              00000003
STRSYNC                           00000004
SWDTEN                            00000000
SYNC                              00000004
T0CS                              00000005
T0IE                              00000005
T0IF                              00000002
T0SE                              00000004
T1CKPS0                           00000004
T1CKPS1                           00000005
T1CON                             00000010
T1GINV                            00000007
T1GIV                             00000007
T1GSS                             00000001
T1INSYNC                          00000002
T1OSCEN                           00000003
T1SYNC                            00000002
T2CKPS0                           00000000
T2CKPS1                           00000001
T2CON                             00000012
TABLA                             00000072
TMR0                              00000001
TMR0IE                            00000005
TMR0IF                            00000002
MPASM 5.66                       TECLADO.ASM   5-6-2016  21:21:45         PAGE 13


SYMBOL TABLE
  LABEL                             VALUE 

TMR1                              0000000E
TMR1CS                            00000001
TMR1GE                            00000006
TMR1H                             0000000F
TMR1IE                            00000000
TMR1IF                            00000000
TMR1L                             0000000E
TMR1ON                            00000000
TMR2                              00000011
TMR2IE                            00000001
TMR2IF                            00000001
TMR2ON                            00000002
TOUTPS0                           00000003
TOUTPS1                           00000004
TOUTPS2                           00000005
TOUTPS3                           00000006
TRES                              0000004A
TRISA                             00000085
TRISA0                            00000000
TRISA1                            00000001
TRISA2                            00000002
TRISA3                            00000003
TRISA4                            00000004
TRISA5                            00000005
TRISA6                            00000006
TRISA7                            00000007
TRISB                             00000086
TRISB0                            00000000
TRISB1                            00000001
TRISB2                            00000002
TRISB3                            00000003
TRISB4                            00000004
TRISB5                            00000005
TRISB6                            00000006
TRISB7                            00000007
TRISC                             00000087
TRISC0                            00000000
TRISC1                            00000001
TRISC2                            00000002
TRISC3                            00000003
TRISC4                            00000004
TRISC5                            00000005
TRISC6                            00000006
TRISC7                            00000007
TRISD                             00000088
TRISD0                            00000000
TRISD1                            00000001
TRISD2                            00000002
TRISD3                            00000003
TRISD4                            00000004
TRISD5                            00000005
TRISD6                            00000006
TRISD7                            00000007
MPASM 5.66                       TECLADO.ASM   5-6-2016  21:21:45         PAGE 14


SYMBOL TABLE
  LABEL                             VALUE 

TRISE                             00000089
TRISE0                            00000000
TRISE1                            00000001
TRISE2                            00000002
TRISE3                            00000003
TRMT                              00000001
TUN0                              00000000
TUN1                              00000001
TUN2                              00000002
TUN3                              00000003
TUN4                              00000004
TX8_9                             00000006
TX9                               00000006
TX9D                              00000000
TXD8                              00000000
TXEN                              00000005
TXIE                              00000004
TXIF                              00000004
TXREG                             00000019
TXSTA                             00000098
UA                                00000001
ULPWUE                            00000005
ULPWUIE                           00000002
ULPWUIF                           00000002
UNO                               00000042
VCFG0                             00000004
VCFG1                             00000005
VR0                               00000000
VR1                               00000001
VR2                               00000002
VR3                               00000003
VRCON                             00000097
VREN                              00000007
VROE                              00000006
VRR                               00000005
VRSS                              00000004
W                                 00000000
WCOL                              00000007
WDTCON                            00000105
WDTPS0                            00000001
WDTPS1                            00000002
WDTPS2                            00000003
WDTPS3                            00000004
WPUB                              00000095
WPUB0                             00000000
WPUB1                             00000001
WPUB2                             00000002
WPUB3                             00000003
WPUB4                             00000004
WPUB5                             00000005
WPUB6                             00000006
WPUB7                             00000007
WR                                00000001
MPASM 5.66                       TECLADO.ASM   5-6-2016  21:21:45         PAGE 15


SYMBOL TABLE
  LABEL                             VALUE 

WREN                              00000002
WRERR                             00000003
WUE                               00000001
Z                                 00000002
_BOR21V                           00003EFF
_BOR40V                           00003FFF
_BOR4V_BOR21V                     00003EFF
_BOR4V_BOR40V                     00003FFF
_BOREN_NSLEEP                     00003EFF
_BOREN_OFF                        00003CFF
_BOREN_ON                         00003FFF
_BOREN_SBODEN                     00003DFF
_BOR_NSLEEP                       00003EFF
_BOR_OFF                          00003CFF
_BOR_ON                           00003FFF
_BOR_SBODEN                       00003DFF
_CONFIG1                          00002007
_CONFIG2                          00002008
_CPD_OFF                          00003FFF
_CPD_ON                           00003F7F
_CP_OFF                           00003FFF
_CP_ON                            00003FBF
_DEBUG_OFF                        00003FFF
_DEBUG_ON                         00001FFF
_DEVID1                           00002006
_EC_OSC                           00003FFB
_EXTRC                            00003FFF
_EXTRCIO                          00003FFE
_EXTRC_OSC_CLKOUT                 00003FFF
_EXTRC_OSC_NOCLKOUT               00003FFE
_FCMEN_OFF                        000037FF
_FCMEN_ON                         00003FFF
_FOSC_EC                          00003FFB
_FOSC_EXTRC_CLKOUT                00003FFF
_FOSC_EXTRC_NOCLKOUT              00003FFE
_FOSC_HS                          00003FFA
_FOSC_INTRC_CLKOUT                00003FFD
_FOSC_INTRC_NOCLKOUT              00003FFC
_FOSC_LP                          00003FF8
_FOSC_XT                          00003FF9
_HS_OSC                           00003FFA
_IDLOC0                           00002000
_IDLOC1                           00002001
_IDLOC2                           00002002
_IDLOC3                           00002003
_IESO_OFF                         00003BFF
_IESO_ON                          00003FFF
_INTOSC                           00003FFD
_INTOSCIO                         00003FFC
_INTRC_OSC_CLKOUT                 00003FFD
_INTRC_OSC_NOCLKOUT               00003FFC
_LP_OSC                           00003FF8
_LVP_OFF                          00002FFF
MPASM 5.66                       TECLADO.ASM   5-6-2016  21:21:45         PAGE 16


SYMBOL TABLE
  LABEL                             VALUE 

_LVP_ON                           00003FFF
_MCLRE_OFF                        00003FDF
_MCLRE_ON                         00003FFF
_PWRTE_OFF                        00003FFF
_PWRTE_ON                         00003FEF
_WDTE_OFF                         00003FF7
_WDTE_ON                          00003FFF
_WDT_OFF                          00003FF7
_WDT_ON                           00003FFF
_WRT_1FOURTH                      00003BFF
_WRT_256                          00003DFF
_WRT_HALF                         000039FF
_WRT_OFF                          00003FFF
_XT_OSC                           00003FF9
__16F887                          00000001
decena                            00000023
mult                              00000020
numero                            00000021
status_temp                       00000071
undec                             00000024
unidad                            00000022
w_temp                            00000070

Errors   :     0
Warnings :     8 reported,     0 suppressed
Messages :     7 reported,     0 suppressed

